; Function Attrs: mustprogress uwtable
define noundef range(i32 -2147483648, 1) i32 @_Z22fdt_get_node_addr_sizePKviPmS1_PKc(ptr noundef %0, i32 noundef %1, ptr noundef writeonly captures(address_is_null) %2, ptr noundef writeonly captures(address_is_null) %3, ptr noundef %4) local_unnamed_addr #3 {
  %6 = alloca i32, align 4
  call void @llvm.lifetime.start.p0(i64 4, ptr nonnull %6) #22
  %7 = tail call i32 @fdt_parent_offset(ptr noundef %0, i32 noundef %1)
  %8 = icmp slt i32 %7, 0
  br i1 %8, label %34, label %9

9:                                                ; preds = %5
  %10 = tail call i32 @fdt_address_cells(ptr noundef %0, i32 noundef %7)
  %11 = icmp slt i32 %10, 1
  br i1 %11, label %34, label %12

12:                                               ; preds = %9
  %13 = tail call i32 @fdt_size_cells(ptr noundef %0, i32 noundef %7)
  %14 = icmp slt i32 %13, 0
  %.not = icmp eq ptr %4, null
  %or.cond = or i1 %.not, %14
  br i1 %or.cond, label %34, label %15

15:                                               ; preds = %12
  %16 = call ptr @fdt_getprop(ptr noundef %0, i32 noundef %1, ptr noundef nonnull %4, ptr noundef nonnull %6)
  %.not46 = icmp eq ptr %16, null
  br i1 %.not46, label %34, label %17

17:                                               ; preds = %15
  %18 = zext nneg i32 %10 to i64
  %19 = getelementptr inbounds nuw i32, ptr %16, i64 %18
  %.not47 = icmp eq ptr %2, null
  br i1 %.not47, label %26, label %.lr.ph

.lr.ph:                                           ; preds = %17, %.lr.ph
  %.053 = phi i64 [ %24, %.lr.ph ], [ 0, %17 ]
  %.03452 = phi ptr [ %21, %.lr.ph ], [ %16, %17 ]
  %.03651 = phi i32 [ %25, %.lr.ph ], [ 0, %17 ]
  %20 = shl i64 %.053, 32
  %21 = getelementptr inbounds nuw i8, ptr %.03452, i64 4
  %22 = load i32, ptr %.03452, align 4, !tbaa !95
  %rev.i = call noundef i32 @llvm.bswap.i32(i32 %22)
  %23 = zext i32 %rev.i to i64
  %24 = or disjoint i64 %20, %23
  %25 = add nuw nsw i32 %.03651, 1
  %exitcond.not = icmp eq i32 %25, %10
  br i1 %exitcond.not, label %._crit_edge, label %.lr.ph, !llvm.loop !105

._crit_edge:                                      ; preds = %.lr.ph
  store i64 %24, ptr %2, align 8, !tbaa !52
  br label %26

26:                                               ; preds = %._crit_edge, %17
  %.not48 = icmp eq ptr %3, null
  br i1 %.not48, label %34, label %.preheader

.preheader:                                       ; preds = %26
  %27 = icmp sgt i32 %13, 0
  br i1 %27, label %.lr.ph57, label %._crit_edge58

.lr.ph57:                                         ; preds = %.preheader, %.lr.ph57
  %.156 = phi i64 [ %32, %.lr.ph57 ], [ 0, %.preheader ]
  %.03355 = phi ptr [ %29, %.lr.ph57 ], [ %19, %.preheader ]
  %.13754 = phi i32 [ %33, %.lr.ph57 ], [ 0, %.preheader ]
  %28 = shl i64 %.156, 32
  %29 = getelementptr inbounds nuw i8, ptr %.03355, i64 4
  %30 = load i32, ptr %.03355, align 4, !tbaa !95
  %rev.i49 = call noundef i32 @llvm.bswap.i32(i32 %30)
  %31 = zext i32 %rev.i49 to i64
  %32 = or disjoint i64 %28, %31
  %33 = add nuw nsw i32 %.13754, 1
  %exitcond61.not = icmp eq i32 %33, %13
  br i1 %exitcond61.not, label %._crit_edge58, label %.lr.ph57, !llvm.loop !106

._crit_edge58:                                    ; preds = %.lr.ph57, %.preheader
  %.1.lcssa = phi i64 [ 0, %.preheader ], [ %32, %.lr.ph57 ]
  store i64 %.1.lcssa, ptr %3, align 8, !tbaa !52
  br label %34

34:                                               ; preds = %26, %._crit_edge58, %15, %12, %9, %5
  %.035 = phi i32 [ %7, %5 ], [ -19, %9 ], [ -19, %12 ], [ -19, %15 ], [ 0, %._crit_edge58 ], [ 0, %26 ]
  call void @llvm.lifetime.end.p0(i64 4, ptr nonnull %6) #22
  ret i32 %.035
}